target datalayout = "e-m:e-p270:32:32-p271:32:32-p272:64:64-i64:64-i128:128-f80:128-n8:16:32:64-S128"
target triple = "x86_64-pc-linux-gnu"

; Function Attrs: nounwind uwtable
define i32 @Cudd_bddIsVarEssential(ptr noundef %0, ptr noundef %1, i32 noundef %2, i32 noundef %3) #0 {
  %5 = alloca ptr, align 8
  %6 = alloca ptr, align 8
  %7 = alloca i32, align 4
  %8 = alloca i32, align 4
  %9 = alloca ptr, align 8
  %10 = alloca i32, align 4
  store ptr %0, ptr %5, align 8
  store ptr %1, ptr %6, align 8
  store i32 %2, ptr %7, align 4
  store i32 %3, ptr %8, align 4
  %11 = load ptr, ptr %5, align 8
  %12 = load i32, ptr %7, align 4
  %13 = call ptr @Cudd_bddIthVar(ptr noundef %11, i32 noundef %12)
  store ptr %13, ptr %9, align 8
  %14 = load ptr, ptr %9, align 8
  %15 = ptrtoint ptr %14 to i64
  %16 = load i32, ptr %8, align 4
  %17 = icmp eq i32 %16, 0
  %18 = zext i1 %17 to i32
  %19 = sext i32 %18 to i64
  %20 = xor i64 %15, %19
  %21 = inttoptr i64 %20 to ptr
  store ptr %21, ptr %9, align 8
  %22 = load ptr, ptr %5, align 8
  %23 = load ptr, ptr %6, align 8
  %24 = load ptr, ptr %9, align 8
  %25 = call i32 @Cudd_bddLeq(ptr noundef %22, ptr noundef %23, ptr noundef %24)
  store i32 %25, ptr %10, align 4
  %26 = load i32, ptr %10, align 4
  ret i32 %26
}