; Function Attrs: nounwind uwtable
define i32 @Cudd_bddIsVarEssential(ptr noundef %0, ptr noundef %1, i32 noundef %2, i32 noundef %3) local_unnamed_addr #0 {
  %5 = tail call ptr @Cudd_bddIthVar(ptr noundef %0, i32 noundef %2) #11
  %6 = ptrtoint ptr %5 to i64
  %7 = icmp eq i32 %3, 0
  %8 = zext i1 %7 to i64
  %9 = xor i64 %6, %8
  %10 = inttoptr i64 %9 to ptr
  %11 = tail call i32 @Cudd_bddLeq(ptr noundef %0, ptr noundef %1, ptr noundef %10) #11
  ret i32 %11
}